target datalayout = "e-m:e-p270:32:32-p271:32:32-p272:64:64-i64:64-i128:128-f80:128-n8:16:32:64-S128"
target triple = "x86_64-pc-linux-gnu"

; Function Attrs: nounwind uwtable
define dso_local void @sortDumpableObjectsByTypeName(ptr noundef %0, i32 noundef %1) #0 {
  %3 = alloca ptr, align 8
  %4 = alloca i32, align 4
  store ptr %0, ptr %3, align 8
  store i32 %1, ptr %4, align 4
  %5 = load i32, ptr %4, align 4
  %6 = icmp sgt i32 %5, 1
  br i1 %6, label %7, label %11

7:                                                ; preds = %2
  %8 = load ptr, ptr %3, align 8
  %9 = load i32, ptr %4, align 4
  %10 = sext i32 %9 to i64
  call void @pg_qsort(ptr noundef %8, i64 noundef %10, i64 noundef 8, ptr noundef @DOTypeNameCompare)
  br label %11

11:                                               ; preds = %7, %2
  ret void
}