; Function Attrs: nounwind uwtable
define dso_local void @sortDumpableObjectsByTypeName(ptr noundef %0, i32 noundef %1) local_unnamed_addr #0 {
  %3 = icmp sgt i32 %1, 1
  br i1 %3, label %4, label %6

4:                                                ; preds = %2
  %5 = zext nneg i32 %1 to i64
  tail call void @pg_qsort(ptr noundef %0, i64 noundef %5, i64 noundef 8, ptr noundef nonnull @DOTypeNameCompare) #9
  br label %6

6:                                                ; preds = %4, %2
  ret void
}